target datalayout = "e-m:e-p270:32:32-p271:32:32-p272:64:64-i64:64-i128:128-f80:128-n8:16:32:64-S128"
target triple = "x86_64-pc-linux-gnu"

%"class.boost::chrono::time_point" = type { %"class.boost::chrono::duration" }
%"class.boost::chrono::duration" = type { i64 }
%struct.timespec = type { i64, i64 }

; Function Attrs: noinline noreturn nounwind uwtable
define linkonce_odr hidden void @__clang_call_terminate(ptr noundef %0) #3 comdat {
  %2 = call ptr @__cxa_begin_catch(ptr %0) #19
  call void @_ZSt9terminatev() #20
  unreachable
}

; Function Attrs: alwaysinline mustprogress nounwind uwtable
define linkonce_odr hidden void @_ZN5boost6chrono10time_pointINS0_12system_clockENS0_8durationIlSt5ratioILl1ELl1000000000EEEEEC2ERKS6_(ptr noundef nonnull align 8 dereferenceable(8) %0, ptr noundef nonnull align 8 dereferenceable(8) %1) unnamed_addr #7 comdat align 2 {
  %3 = alloca ptr, align 8
  %4 = alloca ptr, align 8
  store ptr %0, ptr %3, align 8, !tbaa !7
  store ptr %1, ptr %4, align 8, !tbaa !7
  %5 = load ptr, ptr %3, align 8
  %6 = getelementptr inbounds nuw %"class.boost::chrono::time_point", ptr %5, i32 0, i32 0
  %7 = load ptr, ptr %4, align 8, !tbaa !7
  call void @llvm.memcpy.p0.p0.i64(ptr align 8 %6, ptr align 8 %7, i64 8, i1 false), !tbaa.struct !23
  ret void
}

; Function Attrs: alwaysinline mustprogress nounwind uwtable
define linkonce_odr hidden void @_ZN5boost6chrono8durationIlSt5ratioILl1ELl1000000000EEEC2IlEERKT_PNS_9enable_ifINS_3mpl4and_INS_14is_convertibleIS6_lEENSA_3or_INS0_23treat_as_floating_pointIlEENSB_INSA_4not_ISG_EENSH_INSF_IS6_EEEEN4mpl_5bool_ILb1EEESN_SN_EENSM_ILb0EEESP_SP_EESN_SN_SN_EEvE4typeE(ptr noundef nonnull align 8 dereferenceable(8) %0, ptr noundef nonnull align 8 dereferenceable(8) %1, ptr noundef %2) unnamed_addr #7 comdat align 2 {
  %4 = alloca ptr, align 8
  %5 = alloca ptr, align 8
  %6 = alloca ptr, align 8
  store ptr %0, ptr %4, align 8, !tbaa !7
  store ptr %1, ptr %5, align 8, !tbaa !7
  store ptr %2, ptr %6, align 8, !tbaa !7
  %7 = load ptr, ptr %4, align 8
  %8 = getelementptr inbounds nuw %"class.boost::chrono::duration", ptr %7, i32 0, i32 0
  %9 = load ptr, ptr %5, align 8, !tbaa !7
  %10 = load i64, ptr %9, align 8, !tbaa !20
  store i64 %10, ptr %8, align 8, !tbaa !21
  ret void
}

; Function Attrs: mustprogress nounwind uwtable
define i64 @_ZN5boost6chrono12system_clock3nowEv() #2 align 2 personality ptr @__gxx_personality_v0 {
  %1 = alloca %"class.boost::chrono::time_point", align 8
  %2 = alloca %struct.timespec, align 8
  %3 = alloca %"class.boost::chrono::duration", align 8
  %4 = alloca i64, align 8
  call void @llvm.lifetime.start.p0(i64 16, ptr %2) #19
  %5 = call i32 @clock_gettime(i32 noundef 0, ptr noundef %2) #19
  %6 = icmp ne i32 %5, 0
  br i1 %6, label %7, label %8

7:                                                ; preds = %0
  br label %8

8:                                                ; preds = %7, %0
  call void @llvm.lifetime.start.p0(i64 8, ptr %3) #19
  call void @llvm.lifetime.start.p0(i64 8, ptr %4) #19
  %9 = getelementptr inbounds nuw %struct.timespec, ptr %2, i32 0, i32 0
  %10 = load i64, ptr %9, align 8, !tbaa !16
  %11 = mul nsw i64 %10, 1000000000
  %12 = getelementptr inbounds nuw %struct.timespec, ptr %2, i32 0, i32 1
  %13 = load i64, ptr %12, align 8, !tbaa !19
  %14 = add nsw i64 %11, %13
  store i64 %14, ptr %4, align 8, !tbaa !20
  invoke void @_ZN5boost6chrono8durationIlSt5ratioILl1ELl1000000000EEEC2IlEERKT_PNS_9enable_ifINS_3mpl4and_INS_14is_convertibleIS6_lEENSA_3or_INS0_23treat_as_floating_pointIlEENSB_INSA_4not_ISG_EENSH_INSF_IS6_EEEEN4mpl_5bool_ILb1EEESN_SN_EENSM_ILb0EEESP_SP_EESN_SN_SN_EEvE4typeE(ptr noundef nonnull align 8 dereferenceable(8) %3, ptr noundef nonnull align 8 dereferenceable(8) %4, ptr noundef null)
          to label %15 unwind label %20

15:                                               ; preds = %8
  invoke void @_ZN5boost6chrono10time_pointINS0_12system_clockENS0_8durationIlSt5ratioILl1ELl1000000000EEEEEC2ERKS6_(ptr noundef nonnull align 8 dereferenceable(8) %1, ptr noundef nonnull align 8 dereferenceable(8) %3)
          to label %16 unwind label %20

16:                                               ; preds = %15
  call void @llvm.lifetime.end.p0(i64 8, ptr %4) #19
  call void @llvm.lifetime.end.p0(i64 8, ptr %3) #19
  call void @llvm.lifetime.end.p0(i64 16, ptr %2) #19
  %17 = getelementptr inbounds nuw %"class.boost::chrono::time_point", ptr %1, i32 0, i32 0
  %18 = getelementptr inbounds nuw %"class.boost::chrono::duration", ptr %17, i32 0, i32 0
  %19 = load i64, ptr %18, align 8
  ret i64 %19

20:                                               ; preds = %15, %8
  %21 = landingpad { ptr, i32 }
          catch ptr null
  %22 = extractvalue { ptr, i32 } %21, 0
  call void @__clang_call_terminate(ptr %22) #20
  unreachable
}