; Function Attrs: mustprogress nounwind uwtable
define i64 @_ZN5boost6chrono12system_clock3nowEv() local_unnamed_addr #4 align 2 personality ptr @__gxx_personality_v0 {
  %1 = alloca %struct.timespec, align 8
  call void @llvm.lifetime.start.p0(i64 16, ptr nonnull %1) #25
  %2 = call i32 @clock_gettime(i32 noundef 0, ptr noundef nonnull %1) #25
  %3 = load i64, ptr %1, align 8, !tbaa !3
  %4 = mul nsw i64 %3, 1000000000
  %5 = getelementptr inbounds nuw i8, ptr %1, i64 8
  %6 = load i64, ptr %5, align 8, !tbaa !8
  %7 = add nsw i64 %4, %6
  call void @llvm.lifetime.end.p0(i64 16, ptr nonnull %1) #25
  ret i64 %7
}